target datalayout = "e-m:e-p270:32:32-p271:32:32-p272:64:64-i64:64-i128:128-f80:128-n8:16:32:64-S128"
target triple = "x86_64-pc-linux-gnu"

%struct.htbl_t = type { i64, i64, i64, i64 }
%union.anon = type { ptr }

@H5PT_ptable_id_type = internal global i32 -2, align 4

; Function Attrs: nounwind uwtable
define i32 @H5PTfree_vlen_buff(i64 noundef %0, i64 noundef %1, ptr noundef %2) #0 {
  %4 = alloca i32, align 4
  %5 = alloca i64, align 8
  %6 = alloca i64, align 8
  %7 = alloca ptr, align 8
  %8 = alloca i64, align 8
  %9 = alloca ptr, align 8
  %10 = alloca i64, align 8
  %11 = alloca i32, align 4
  %12 = alloca i32, align 4
  %13 = alloca i32, align 4
  %14 = alloca %union.anon, align 8
  %15 = alloca ptr, align 8
  store i64 %0, ptr %5, align 8, !tbaa !3
  store i64 %1, ptr %6, align 8, !tbaa !3
  store ptr %2, ptr %7, align 8, !tbaa !10
  call void @llvm.lifetime.start.p0(i64 8, ptr %8) #6
  store i64 -1, ptr %8, align 8, !tbaa !3
  call void @llvm.lifetime.start.p0(i64 8, ptr %9) #6
  call void @llvm.lifetime.start.p0(i64 8, ptr %10) #6
  %16 = load i64, ptr %6, align 8, !tbaa !3
  store i64 %16, ptr %10, align 8, !tbaa !3
  call void @llvm.lifetime.start.p0(i64 4, ptr %11) #6
  %17 = load i64, ptr %5, align 8, !tbaa !3
  %18 = load i32, ptr @H5PT_ptable_id_type, align 4, !tbaa !11
  %19 = call ptr @H5Iobject_verify(i64 noundef %17, i32 noundef %18)
  store ptr %19, ptr %9, align 8, !tbaa !10
  %20 = icmp eq ptr %19, null
  br i1 %20, label %21, label %22

21:                                               ; preds = %3
  br label %42

22:                                               ; preds = %3
  %23 = call i64 @H5Screate_simple(i32 noundef 1, ptr noundef %10, ptr noundef null)
  store i64 %23, ptr %8, align 8, !tbaa !3
  %24 = icmp slt i64 %23, 0
  br i1 %24, label %25, label %26

25:                                               ; preds = %22
  br label %42

26:                                               ; preds = %22
  %27 = load ptr, ptr %9, align 8, !tbaa !10
  %28 = getelementptr inbounds nuw %struct.htbl_t, ptr %27, i32 0, i32 1
  %29 = load i64, ptr %28, align 8, !tbaa !15
  %30 = load i64, ptr %8, align 8, !tbaa !3
  %31 = load ptr, ptr %7, align 8, !tbaa !10
  %32 = call i32 @H5Treclaim(i64 noundef %29, i64 noundef %30, i64 noundef 0, ptr noundef %31)
  store i32 %32, ptr %11, align 4, !tbaa !11
  %33 = icmp slt i32 %32, 0
  br i1 %33, label %34, label %35

34:                                               ; preds = %26
  br label %42

35:                                               ; preds = %26
  %36 = load i64, ptr %8, align 8, !tbaa !3
  %37 = call i32 @H5Sclose(i64 noundef %36)
  %38 = icmp slt i32 %37, 0
  br i1 %38, label %39, label %40

39:                                               ; preds = %35
  store i32 -2, ptr %4, align 4
  store i32 1, ptr %12, align 4
  br label %66

40:                                               ; preds = %35
  %41 = load i32, ptr %11, align 4, !tbaa !11
  store i32 %41, ptr %4, align 4
  store i32 1, ptr %12, align 4
  br label %66

42:                                               ; preds = %34, %25, %21
  call void @llvm.lifetime.start.p0(i64 4, ptr %13) #6
  call void @llvm.lifetime.start.p0(i64 8, ptr %14) #6
  call void @llvm.lifetime.start.p0(i64 8, ptr %15) #6
  %43 = call i32 @H5Eauto_is_v2(i64 noundef 0, ptr noundef %13)
  %44 = load i32, ptr %13, align 4, !tbaa !11
  %45 = icmp ne i32 %44, 0
  br i1 %45, label %46, label %49

46:                                               ; preds = %42
  %47 = call i32 @H5Eget_auto2(i64 noundef 0, ptr noundef %14, ptr noundef %15)
  %48 = call i32 @H5Eset_auto2(i64 noundef 0, ptr noundef null, ptr noundef null)
  br label %52

49:                                               ; preds = %42
  %50 = call i32 @H5Eget_auto1(ptr noundef %14, ptr noundef %15)
  %51 = call i32 @H5Eset_auto1(ptr noundef null, ptr noundef null)
  br label %52

52:                                               ; preds = %49, %46
  %53 = load i64, ptr %8, align 8, !tbaa !3
  %54 = call i32 @H5Sclose(i64 noundef %53)
  %55 = load i32, ptr %13, align 4, !tbaa !11
  %56 = icmp ne i32 %55, 0
  br i1 %56, label %57, label %61

57:                                               ; preds = %52
  %58 = load ptr, ptr %14, align 8, !tbaa !22
  %59 = load ptr, ptr %15, align 8, !tbaa !10
  %60 = call i32 @H5Eset_auto2(i64 noundef 0, ptr noundef %58, ptr noundef %59)
  br label %65

61:                                               ; preds = %52
  %62 = load ptr, ptr %14, align 8, !tbaa !22
  %63 = load ptr, ptr %15, align 8, !tbaa !10
  %64 = call i32 @H5Eset_auto1(ptr noundef %62, ptr noundef %63)
  br label %65

65:                                               ; preds = %61, %57
  call void @llvm.lifetime.end.p0(i64 8, ptr %15) #6
  call void @llvm.lifetime.end.p0(i64 8, ptr %14) #6
  call void @llvm.lifetime.end.p0(i64 4, ptr %13) #6
  store i32 -1, ptr %4, align 4
  store i32 1, ptr %12, align 4
  br label %66

66:                                               ; preds = %65, %40, %39
  call void @llvm.lifetime.end.p0(i64 4, ptr %11) #6
  call void @llvm.lifetime.end.p0(i64 8, ptr %10) #6
  call void @llvm.lifetime.end.p0(i64 8, ptr %9) #6
  call void @llvm.lifetime.end.p0(i64 8, ptr %8) #6
  %67 = load i32, ptr %4, align 4
  ret i32 %67
}