; Function Attrs: nounwind uwtable
define range(i32 -2, -2147483648) i32 @H5PTfree_vlen_buff(i64 noundef %0, i64 noundef %1, ptr noundef %2) local_unnamed_addr #0 {
  %4 = alloca i64, align 8
  %5 = alloca i32, align 4
  %6 = alloca %union.anon, align 8
  %7 = alloca ptr, align 8
  call void @llvm.lifetime.start.p0(i64 8, ptr nonnull %4) #7
  store i64 %1, ptr %4, align 8, !tbaa !7
  %8 = load i32, ptr @H5PT_ptable_id_type, align 4, !tbaa !3
  %9 = tail call ptr @H5Iobject_verify(i64 noundef %0, i32 noundef %8) #7
  %10 = icmp eq ptr %9, null
  br i1 %10, label %22, label %11

11:                                               ; preds = %3
  %12 = call i64 @H5Screate_simple(i32 noundef 1, ptr noundef nonnull %4, ptr noundef null) #7
  %13 = icmp slt i64 %12, 0
  br i1 %13, label %22, label %14

14:                                               ; preds = %11
  %15 = getelementptr inbounds nuw i8, ptr %9, i64 8
  %16 = load i64, ptr %15, align 8, !tbaa !16
  %17 = call i32 @H5Treclaim(i64 noundef %16, i64 noundef %12, i64 noundef 0, ptr noundef %2) #7
  %18 = icmp slt i32 %17, 0
  br i1 %18, label %22, label %19

19:                                               ; preds = %14
  %20 = call i32 @H5Sclose(i64 noundef %12) #7
  %21 = icmp slt i32 %20, 0
  %. = select i1 %21, i32 -2, i32 %17
  br label %41

22:                                               ; preds = %14, %11, %3
  %.08 = phi i64 [ -1, %3 ], [ %12, %11 ], [ %12, %14 ]
  call void @llvm.lifetime.start.p0(i64 4, ptr nonnull %5) #7
  call void @llvm.lifetime.start.p0(i64 8, ptr nonnull %6) #7
  call void @llvm.lifetime.start.p0(i64 8, ptr nonnull %7) #7
  %23 = call i32 @H5Eauto_is_v2(i64 noundef 0, ptr noundef nonnull %5) #7
  %24 = load i32, ptr %5, align 4, !tbaa !3
  %.not = icmp eq i32 %24, 0
  br i1 %.not, label %28, label %25

25:                                               ; preds = %22
  %26 = call i32 @H5Eget_auto2(i64 noundef 0, ptr noundef nonnull %6, ptr noundef nonnull %7) #7
  %27 = call i32 @H5Eset_auto2(i64 noundef 0, ptr noundef null, ptr noundef null) #7
  br label %31

28:                                               ; preds = %22
  %29 = call i32 @H5Eget_auto1(ptr noundef nonnull %6, ptr noundef nonnull %7) #7
  %30 = call i32 @H5Eset_auto1(ptr noundef null, ptr noundef null) #7
  br label %31

31:                                               ; preds = %28, %25
  %32 = call i32 @H5Sclose(i64 noundef %.08) #7
  %33 = load i32, ptr %5, align 4, !tbaa !3
  %.not12 = icmp eq i32 %33, 0
  %34 = load ptr, ptr %6, align 8, !tbaa !17
  %35 = load ptr, ptr %7, align 8, !tbaa !18
  br i1 %.not12, label %38, label %36

36:                                               ; preds = %31
  %37 = call i32 @H5Eset_auto2(i64 noundef 0, ptr noundef %34, ptr noundef %35) #7
  br label %40

38:                                               ; preds = %31
  %39 = call i32 @H5Eset_auto1(ptr noundef %34, ptr noundef %35) #7
  br label %40

40:                                               ; preds = %38, %36
  call void @llvm.lifetime.end.p0(i64 8, ptr nonnull %7) #7
  call void @llvm.lifetime.end.p0(i64 8, ptr nonnull %6) #7
  call void @llvm.lifetime.end.p0(i64 4, ptr nonnull %5) #7
  br label %41

41:                                               ; preds = %19, %40
  %.0 = phi i32 [ -1, %40 ], [ %., %19 ]
  call void @llvm.lifetime.end.p0(i64 8, ptr nonnull %4) #7
  ret i32 %.0
}